; Function Attrs: mustprogress uwtable
define noundef i32 @_ZN6icu_7522RuleBasedBreakIterator8previousEv(ptr nocapture noundef nonnull readonly align 8 dereferenceable(745) %this) unnamed_addr #1 align 2 {
entry:
  %status = alloca i32, align 4
  store i32 0, ptr %status, align 4
  %fBreakCache = getelementptr inbounds i8, ptr %this, i64 648
  %0 = load ptr, ptr %fBreakCache, align 8
  call void @_ZN6icu_7522RuleBasedBreakIterator10BreakCache8previousER10UErrorCode(ptr noundef nonnull align 8 dereferenceable(832) %0, ptr noundef nonnull align 4 dereferenceable(4) %status)
  %fDone = getelementptr inbounds i8, ptr %this, i64 728
  %1 = load i8, ptr %fDone, align 8
  %2 = and i8 %1, 1
  %tobool.not = icmp eq i8 %2, 0
  %fPosition = getelementptr inbounds i8, ptr %this, i64 636
  %3 = load i32, ptr %fPosition, align 4
  %cond = select i1 %tobool.not, i32 %3, i32 -1
  ret i32 %cond
}